target datalayout = "e-m:e-p270:32:32-p271:32:32-p272:64:64-i64:64-i128:128-f80:128-n8:16:32:64-S128"
target triple = "x86_64-pc-linux-gnu"

%struct.AVFilterContext = type { ptr, ptr, ptr, ptr, ptr, i32, ptr, ptr, i32, ptr, ptr, i32, i32, ptr, ptr, ptr, ptr, i32, ptr, i32, i32 }
%struct.AudioLimiterContext = type { ptr, double, double, double, double, double, double, i32, i32, double, i32, i32, double, ptr, i32, i32, ptr, ptr, i32, i32, i64, i64, i32, ptr, double, i32, i32, i32 }
%struct.AVRational = type { i32, i32 }
%struct.AVFilterLink = type { ptr, ptr, ptr, ptr, i32, i32, i32, i32, %struct.AVRational, i32, i32, i32, %struct.AVChannelLayout, %struct.AVRational, ptr, i32, %struct.AVFilterFormatsConfig, %struct.AVFilterFormatsConfig }
%struct.AVChannelLayout = type { i32, i32, %union.anon.1, ptr }
%union.anon.1 = type { i64 }
%struct.AVFilterFormatsConfig = type { ptr, ptr, ptr, ptr, ptr }

@.str.3 = private unnamed_addr constant [22 x i8] c"Attack is too small.\0A\00", align 1

; Function Attrs: nounwind uwtable
define internal i32 @config_input(ptr noundef %0) #2 {
  %2 = alloca i32, align 4
  %3 = alloca ptr, align 8
  %4 = alloca ptr, align 8
  %5 = alloca ptr, align 8
  %6 = alloca i32, align 4
  %7 = alloca i32, align 4
  store ptr %0, ptr %3, align 8, !tbaa !34
  call void @llvm.lifetime.start.p0(i64 8, ptr %4) #10
  %8 = load ptr, ptr %3, align 8, !tbaa !34
  %9 = getelementptr inbounds nuw %struct.AVFilterLink, ptr %8, i32 0, i32 2
  %10 = load ptr, ptr %9, align 8, !tbaa !38
  store ptr %10, ptr %4, align 8, !tbaa !4
  call void @llvm.lifetime.start.p0(i64 8, ptr %5) #10
  %11 = load ptr, ptr %4, align 8, !tbaa !4
  %12 = getelementptr inbounds nuw %struct.AVFilterContext, ptr %11, i32 0, i32 9
  %13 = load ptr, ptr %12, align 8, !tbaa !9
  store ptr %13, ptr %5, align 8, !tbaa !22
  call void @llvm.lifetime.start.p0(i64 4, ptr %6) #10
  %14 = load ptr, ptr %3, align 8, !tbaa !34
  %15 = getelementptr inbounds nuw %struct.AVFilterLink, ptr %14, i32 0, i32 11
  %16 = load i32, ptr %15, align 8, !tbaa !72
  %17 = load ptr, ptr %3, align 8, !tbaa !34
  %18 = getelementptr inbounds nuw %struct.AVFilterLink, ptr %17, i32 0, i32 12
  %19 = getelementptr inbounds nuw %struct.AVChannelLayout, ptr %18, i32 0, i32 1
  %20 = load i32, ptr %19, align 4, !tbaa !49
  %21 = mul nsw i32 %16, %20
  %22 = mul nsw i32 %21, 100
  %23 = sitofp i32 %22 to double
  %24 = fdiv nsz double %23, 1.000000e+03
  %25 = load ptr, ptr %3, align 8, !tbaa !34
  %26 = getelementptr inbounds nuw %struct.AVFilterLink, ptr %25, i32 0, i32 12
  %27 = getelementptr inbounds nuw %struct.AVChannelLayout, ptr %26, i32 0, i32 1
  %28 = load i32, ptr %27, align 4, !tbaa !49
  %29 = sitofp i32 %28 to double
  %30 = fadd nsz double %24, %29
  %31 = fptosi double %30 to i32
  store i32 %31, ptr %6, align 4, !tbaa !50
  %32 = load i32, ptr %6, align 4, !tbaa !50
  %33 = load ptr, ptr %3, align 8, !tbaa !34
  %34 = getelementptr inbounds nuw %struct.AVFilterLink, ptr %33, i32 0, i32 12
  %35 = getelementptr inbounds nuw %struct.AVChannelLayout, ptr %34, i32 0, i32 1
  %36 = load i32, ptr %35, align 4, !tbaa !49
  %37 = icmp slt i32 %32, %36
  br i1 %37, label %38, label %39

38:                                               ; preds = %1
  store i32 -22, ptr %2, align 4
  store i32 1, ptr %7, align 4
  br label %145

39:                                               ; preds = %1
  %40 = load i32, ptr %6, align 4, !tbaa !50
  %41 = sext i32 %40 to i64
  %42 = call noalias ptr @av_calloc(i64 noundef %41, i64 noundef 8)
  %43 = load ptr, ptr %5, align 8, !tbaa !22
  %44 = getelementptr inbounds nuw %struct.AudioLimiterContext, ptr %43, i32 0, i32 13
  store ptr %42, ptr %44, align 8, !tbaa !52
  %45 = load i32, ptr %6, align 4, !tbaa !50
  %46 = sext i32 %45 to i64
  %47 = call noalias ptr @av_calloc(i64 noundef %46, i64 noundef 8)
  %48 = load ptr, ptr %5, align 8, !tbaa !22
  %49 = getelementptr inbounds nuw %struct.AudioLimiterContext, ptr %48, i32 0, i32 17
  store ptr %47, ptr %49, align 8, !tbaa !55
  %50 = load i32, ptr %6, align 4, !tbaa !50
  %51 = sext i32 %50 to i64
  %52 = call ptr @av_malloc_array(i64 noundef %51, i64 noundef 4)
  %53 = load ptr, ptr %5, align 8, !tbaa !22
  %54 = getelementptr inbounds nuw %struct.AudioLimiterContext, ptr %53, i32 0, i32 16
  store ptr %52, ptr %54, align 8, !tbaa !59
  %55 = load ptr, ptr %5, align 8, !tbaa !22
  %56 = getelementptr inbounds nuw %struct.AudioLimiterContext, ptr %55, i32 0, i32 13
  %57 = load ptr, ptr %56, align 8, !tbaa !52
  %58 = icmp ne ptr %57, null
  br i1 %58, label %59, label %69

59:                                               ; preds = %39
  %60 = load ptr, ptr %5, align 8, !tbaa !22
  %61 = getelementptr inbounds nuw %struct.AudioLimiterContext, ptr %60, i32 0, i32 17
  %62 = load ptr, ptr %61, align 8, !tbaa !55
  %63 = icmp ne ptr %62, null
  br i1 %63, label %64, label %69

64:                                               ; preds = %59
  %65 = load ptr, ptr %5, align 8, !tbaa !22
  %66 = getelementptr inbounds nuw %struct.AudioLimiterContext, ptr %65, i32 0, i32 16
  %67 = load ptr, ptr %66, align 8, !tbaa !59
  %68 = icmp ne ptr %67, null
  br i1 %68, label %70, label %69

69:                                               ; preds = %64, %59, %39
  store i32 -12, ptr %2, align 4
  store i32 1, ptr %7, align 4
  br label %145

70:                                               ; preds = %64
  %71 = load ptr, ptr %5, align 8, !tbaa !22
  %72 = getelementptr inbounds nuw %struct.AudioLimiterContext, ptr %71, i32 0, i32 16
  %73 = load ptr, ptr %72, align 8, !tbaa !59
  %74 = load i32, ptr %6, align 4, !tbaa !50
  %75 = sext i32 %74 to i64
  %76 = mul i64 %75, 4
  call void @llvm.memset.p0.i64(ptr align 4 %73, i8 -1, i64 %76, i1 false)
  %77 = load ptr, ptr %3, align 8, !tbaa !34
  %78 = getelementptr inbounds nuw %struct.AVFilterLink, ptr %77, i32 0, i32 11
  %79 = load i32, ptr %78, align 8, !tbaa !72
  %80 = sitofp i32 %79 to double
  %81 = load ptr, ptr %5, align 8, !tbaa !22
  %82 = getelementptr inbounds nuw %struct.AudioLimiterContext, ptr %81, i32 0, i32 2
  %83 = load double, ptr %82, align 8, !tbaa !24
  %84 = fmul nsz double %80, %83
  %85 = load ptr, ptr %3, align 8, !tbaa !34
  %86 = getelementptr inbounds nuw %struct.AVFilterLink, ptr %85, i32 0, i32 12
  %87 = getelementptr inbounds nuw %struct.AVChannelLayout, ptr %86, i32 0, i32 1
  %88 = load i32, ptr %87, align 4, !tbaa !49
  %89 = sitofp i32 %88 to double
  %90 = fmul nsz double %84, %89
  %91 = fptosi double %90 to i32
  %92 = load ptr, ptr %5, align 8, !tbaa !22
  %93 = getelementptr inbounds nuw %struct.AudioLimiterContext, ptr %92, i32 0, i32 14
  store i32 %91, ptr %93, align 8, !tbaa !51
  %94 = load ptr, ptr %5, align 8, !tbaa !22
  %95 = getelementptr inbounds nuw %struct.AudioLimiterContext, ptr %94, i32 0, i32 14
  %96 = load i32, ptr %95, align 8, !tbaa !51
  %97 = load ptr, ptr %3, align 8, !tbaa !34
  %98 = getelementptr inbounds nuw %struct.AVFilterLink, ptr %97, i32 0, i32 12
  %99 = getelementptr inbounds nuw %struct.AVChannelLayout, ptr %98, i32 0, i32 1
  %100 = load i32, ptr %99, align 4, !tbaa !49
  %101 = srem i32 %96, %100
  %102 = load ptr, ptr %5, align 8, !tbaa !22
  %103 = getelementptr inbounds nuw %struct.AudioLimiterContext, ptr %102, i32 0, i32 14
  %104 = load i32, ptr %103, align 8, !tbaa !51
  %105 = sub nsw i32 %104, %101
  store i32 %105, ptr %103, align 8, !tbaa !51
  %106 = load ptr, ptr %5, align 8, !tbaa !22
  %107 = getelementptr inbounds nuw %struct.AudioLimiterContext, ptr %106, i32 0, i32 22
  %108 = load i32, ptr %107, align 8, !tbaa !97
  %109 = icmp ne i32 %108, 0
  br i1 %109, label %110, label %124

110:                                              ; preds = %70
  %111 = load ptr, ptr %5, align 8, !tbaa !22
  %112 = getelementptr inbounds nuw %struct.AudioLimiterContext, ptr %111, i32 0, i32 14
  %113 = load i32, ptr %112, align 8, !tbaa !51
  %114 = load ptr, ptr %3, align 8, !tbaa !34
  %115 = getelementptr inbounds nuw %struct.AVFilterLink, ptr %114, i32 0, i32 12
  %116 = getelementptr inbounds nuw %struct.AVChannelLayout, ptr %115, i32 0, i32 1
  %117 = load i32, ptr %116, align 4, !tbaa !49
  %118 = sdiv i32 %113, %117
  %119 = sub nsw i32 %118, 1
  %120 = load ptr, ptr %5, align 8, !tbaa !22
  %121 = getelementptr inbounds nuw %struct.AudioLimiterContext, ptr %120, i32 0, i32 19
  store i32 %119, ptr %121, align 4, !tbaa !98
  %122 = load ptr, ptr %5, align 8, !tbaa !22
  %123 = getelementptr inbounds nuw %struct.AudioLimiterContext, ptr %122, i32 0, i32 18
  store i32 %119, ptr %123, align 8, !tbaa !92
  br label %124

124:                                              ; preds = %110, %70
  %125 = load ptr, ptr %5, align 8, !tbaa !22
  %126 = getelementptr inbounds nuw %struct.AudioLimiterContext, ptr %125, i32 0, i32 21
  store i64 -9223372036854775808, ptr %126, align 8, !tbaa !95
  %127 = load ptr, ptr %5, align 8, !tbaa !22
  %128 = getelementptr inbounds nuw %struct.AudioLimiterContext, ptr %127, i32 0, i32 20
  store i64 -9223372036854775808, ptr %128, align 8, !tbaa !96
  %129 = call ptr @av_fifo_alloc2(i64 noundef 8, i64 noundef 16, i32 noundef 1)
  %130 = load ptr, ptr %5, align 8, !tbaa !22
  %131 = getelementptr inbounds nuw %struct.AudioLimiterContext, ptr %130, i32 0, i32 23
  store ptr %129, ptr %131, align 8, !tbaa !91
  %132 = load ptr, ptr %5, align 8, !tbaa !22
  %133 = getelementptr inbounds nuw %struct.AudioLimiterContext, ptr %132, i32 0, i32 23
  %134 = load ptr, ptr %133, align 8, !tbaa !91
  %135 = icmp ne ptr %134, null
  br i1 %135, label %137, label %136

136:                                              ; preds = %124
  store i32 -12, ptr %2, align 4
  store i32 1, ptr %7, align 4
  br label %145

137:                                              ; preds = %124
  %138 = load ptr, ptr %5, align 8, !tbaa !22
  %139 = getelementptr inbounds nuw %struct.AudioLimiterContext, ptr %138, i32 0, i32 14
  %140 = load i32, ptr %139, align 8, !tbaa !51
  %141 = icmp sle i32 %140, 0
  br i1 %141, label %142, label %144

142:                                              ; preds = %137
  %143 = load ptr, ptr %4, align 8, !tbaa !4
  call void (ptr, i32, ptr, ...) @av_log(ptr noundef %143, i32 noundef 16, ptr noundef @.str.3)
  store i32 -22, ptr %2, align 4
  store i32 1, ptr %7, align 4
  br label %145

144:                                              ; preds = %137
  store i32 0, ptr %2, align 4
  store i32 1, ptr %7, align 4
  br label %145

145:                                              ; preds = %144, %142, %136, %69, %38
  call void @llvm.lifetime.end.p0(i64 4, ptr %6) #10
  call void @llvm.lifetime.end.p0(i64 8, ptr %5) #10
  call void @llvm.lifetime.end.p0(i64 8, ptr %4) #10
  %146 = load i32, ptr %2, align 4
  ret i32 %146
}