; Function Attrs: nounwind uwtable
define internal range(i32 -22, 1) i32 @config_input(ptr noundef readonly captures(none) %0) #3 {
  %2 = getelementptr inbounds nuw i8, ptr %0, i64 16
  %3 = load ptr, ptr %2, align 8, !tbaa !32
  %4 = getelementptr inbounds nuw i8, ptr %3, i64 72
  %5 = load ptr, ptr %4, align 8, !tbaa !4
  %6 = getelementptr inbounds nuw i8, ptr %0, i64 64
  %7 = load i32, ptr %6, align 8, !tbaa !66
  %8 = getelementptr inbounds nuw i8, ptr %0, i64 76
  %9 = load i32, ptr %8, align 4, !tbaa !45
  %10 = mul i32 %7, 100
  %11 = mul i32 %10, %9
  %12 = sitofp i32 %11 to double
  %13 = fdiv nsz double %12, 1.000000e+03
  %14 = sitofp i32 %9 to double
  %15 = fadd nsz double %13, %14
  %16 = fptosi double %15 to i32
  %17 = icmp sgt i32 %9, %16
  br i1 %17, label %59, label %18

18:                                               ; preds = %1
  %19 = sext i32 %16 to i64
  %20 = tail call noalias ptr @av_calloc(i64 noundef %19, i64 noundef 8) #10
  %21 = getelementptr inbounds nuw i8, ptr %5, i64 88
  store ptr %20, ptr %21, align 8, !tbaa !47
  %22 = tail call noalias ptr @av_calloc(i64 noundef %19, i64 noundef 8) #10
  %23 = getelementptr inbounds nuw i8, ptr %5, i64 112
  store ptr %22, ptr %23, align 8, !tbaa !49
  %24 = tail call ptr @av_malloc_array(i64 noundef %19, i64 noundef 4) #10
  %25 = getelementptr inbounds nuw i8, ptr %5, i64 104
  store ptr %24, ptr %25, align 8, !tbaa !53
  %26 = load ptr, ptr %21, align 8, !tbaa !47
  %.not = icmp eq ptr %26, null
  br i1 %.not, label %59, label %27

27:                                               ; preds = %18
  %28 = load ptr, ptr %23, align 8, !tbaa !49
  %.not38 = icmp eq ptr %28, null
  %.not39 = icmp eq ptr %24, null
  %or.cond = select i1 %.not38, i1 true, i1 %.not39
  br i1 %or.cond, label %59, label %29

29:                                               ; preds = %27
  %30 = shl nsw i64 %19, 2
  tail call void @llvm.memset.p0.i64(ptr nonnull align 4 %24, i8 -1, i64 %30, i1 false)
  %31 = load i32, ptr %6, align 8, !tbaa !66
  %32 = sitofp i32 %31 to double
  %33 = getelementptr inbounds nuw i8, ptr %5, i64 16
  %34 = load double, ptr %33, align 8, !tbaa !20
  %35 = fmul nsz double %34, %32
  %36 = load i32, ptr %8, align 4, !tbaa !45
  %37 = sitofp i32 %36 to double
  %38 = fmul nsz double %35, %37
  %39 = fptosi double %38 to i32
  %40 = getelementptr inbounds nuw i8, ptr %5, i64 96
  %41 = srem i32 %39, %36
  %42 = sdiv i32 %39, %36
  %43 = sub nsw i32 %39, %41
  store i32 %43, ptr %40, align 8, !tbaa !46
  %44 = getelementptr inbounds nuw i8, ptr %5, i64 144
  %45 = load i32, ptr %44, align 8, !tbaa !91
  %.not40 = icmp eq i32 %45, 0
  br i1 %.not40, label %50, label %46

46:                                               ; preds = %29
  %47 = add nsw i32 %42, -1
  %48 = getelementptr inbounds nuw i8, ptr %5, i64 124
  store i32 %47, ptr %48, align 4, !tbaa !92
  %49 = getelementptr inbounds nuw i8, ptr %5, i64 120
  store i32 %47, ptr %49, align 8, !tbaa !82
  br label %50

50:                                               ; preds = %46, %29
  %51 = getelementptr inbounds nuw i8, ptr %5, i64 136
  store i64 -9223372036854775808, ptr %51, align 8, !tbaa !89
  %52 = getelementptr inbounds nuw i8, ptr %5, i64 128
  store i64 -9223372036854775808, ptr %52, align 8, !tbaa !90
  %53 = tail call ptr @av_fifo_alloc2(i64 noundef 8, i64 noundef 16, i32 noundef 1) #10
  %54 = getelementptr inbounds nuw i8, ptr %5, i64 152
  store ptr %53, ptr %54, align 8, !tbaa !81
  %.not41 = icmp eq ptr %53, null
  br i1 %.not41, label %59, label %55

55:                                               ; preds = %50
  %56 = load i32, ptr %40, align 8, !tbaa !46
  %57 = icmp slt i32 %56, 1
  br i1 %57, label %58, label %59

58:                                               ; preds = %55
  tail call void (ptr, i32, ptr, ...) @av_log(ptr noundef nonnull %3, i32 noundef 16, ptr noundef nonnull @.str.3) #10
  br label %59

59:                                               ; preds = %55, %50, %18, %27, %1, %58
  %.0 = phi i32 [ -22, %58 ], [ -22, %1 ], [ -12, %27 ], [ -12, %18 ], [ -12, %50 ], [ 0, %55 ]
  ret i32 %.0
}